target datalayout = "e-m:e-p270:32:32-p271:32:32-p272:64:64-i64:64-i128:128-f80:128-n8:16:32:64-S128"
target triple = "x86_64-pc-linux-gnu"

@bio_err = external global ptr, align 8
@.str.239 = private unnamed_addr constant [20 x i8] c"certificate request\00", align 1
@.str.240 = private unnamed_addr constant [28 x i8] c"Error unpacking public key\0A\00", align 1
@.str.241 = private unnamed_addr constant [46 x i8] c"Check that the request matches the signature\0A\00", align 1
@.str.242 = private unnamed_addr constant [53 x i8] c"Certificate request and CA private key do not match\0A\00", align 1
@.str.243 = private unnamed_addr constant [36 x i8] c"Signature verification problems...\0A\00", align 1
@.str.244 = private unnamed_addr constant [49 x i8] c"Signature did not match the certificate request\0A\00", align 1
@.str.245 = private unnamed_addr constant [14 x i8] c"Signature ok\0A\00", align 1

; Function Attrs: nounwind uwtable
define internal i32 @certify(ptr noundef %0, ptr noundef %1, i32 noundef %2, ptr noundef %3, ptr noundef %4, ptr noundef %5, ptr noundef %6, ptr noundef %7, ptr noundef %8, ptr noundef %9, ptr noundef %10, ptr noundef %11, i64 noundef %12, i32 noundef %13, i32 noundef %14, ptr noundef %15, ptr noundef %16, i64 noundef %17, i32 noundef %18, ptr noundef %19, ptr noundef %20, i32 noundef %21, i64 noundef %22, i64 noundef %23, i32 noundef %24, i32 noundef %25, i32 noundef %26, i64 noundef %27) #0 {
  %29 = alloca ptr, align 8
  %30 = alloca ptr, align 8
  %31 = alloca i32, align 4
  %32 = alloca ptr, align 8
  %33 = alloca ptr, align 8
  %34 = alloca ptr, align 8
  %35 = alloca ptr, align 8
  %36 = alloca ptr, align 8
  %37 = alloca ptr, align 8
  %38 = alloca ptr, align 8
  %39 = alloca ptr, align 8
  %40 = alloca ptr, align 8
  %41 = alloca i64, align 8
  %42 = alloca i32, align 4
  %43 = alloca i32, align 4
  %44 = alloca ptr, align 8
  %45 = alloca ptr, align 8
  %46 = alloca i64, align 8
  %47 = alloca i32, align 4
  %48 = alloca ptr, align 8
  %49 = alloca ptr, align 8
  %50 = alloca i32, align 4
  %51 = alloca i64, align 8
  %52 = alloca i64, align 8
  %53 = alloca i32, align 4
  %54 = alloca i32, align 4
  %55 = alloca i32, align 4
  %56 = alloca i64, align 8
  %57 = alloca ptr, align 8
  %58 = alloca ptr, align 8
  %59 = alloca i32, align 4
  %60 = alloca i32, align 4
  store ptr %0, ptr %29, align 8, !tbaa !75
  store ptr %1, ptr %30, align 8, !tbaa !31
  store i32 %2, ptr %31, align 4, !tbaa !4
  store ptr %3, ptr %32, align 8, !tbaa !17
  store ptr %4, ptr %33, align 8, !tbaa !35
  store ptr %5, ptr %34, align 8, !tbaa !31
  store ptr %6, ptr %35, align 8, !tbaa !25
  store ptr %7, ptr %36, align 8, !tbaa !25
  store ptr %8, ptr %37, align 8, !tbaa !23
  store ptr %9, ptr %38, align 8, !tbaa !21
  store ptr %10, ptr %39, align 8, !tbaa !15
  store ptr %11, ptr %40, align 8, !tbaa !31
  store i64 %12, ptr %41, align 8, !tbaa !33
  store i32 %13, ptr %42, align 4, !tbaa !4
  store i32 %14, ptr %43, align 4, !tbaa !4
  store ptr %15, ptr %44, align 8, !tbaa !31
  store ptr %16, ptr %45, align 8, !tbaa !31
  store i64 %17, ptr %46, align 8, !tbaa !33
  store i32 %18, ptr %47, align 4, !tbaa !4
  store ptr %19, ptr %48, align 8, !tbaa !31
  store ptr %20, ptr %49, align 8, !tbaa !11
  store i32 %21, ptr %50, align 4, !tbaa !4
  store i64 %22, ptr %51, align 8, !tbaa !33
  store i64 %23, ptr %52, align 8, !tbaa !33
  store i32 %24, ptr %53, align 4, !tbaa !4
  store i32 %25, ptr %54, align 4, !tbaa !4
  store i32 %26, ptr %55, align 4, !tbaa !4
  store i64 %27, ptr %56, align 8, !tbaa !33
  call void @llvm.lifetime.start.p0(i64 8, ptr %57) #10
  store ptr null, ptr %57, align 8, !tbaa !79
  call void @llvm.lifetime.start.p0(i64 8, ptr %58) #10
  store ptr null, ptr %58, align 8, !tbaa !17
  call void @llvm.lifetime.start.p0(i64 4, ptr %59) #10
  store i32 -1, ptr %59, align 4, !tbaa !4
  call void @llvm.lifetime.start.p0(i64 4, ptr %60) #10
  %61 = load ptr, ptr %30, align 8, !tbaa !31
  %62 = load i32, ptr %31, align 4, !tbaa !4
  %63 = load ptr, ptr %36, align 8, !tbaa !25
  %64 = call ptr @load_csr_autofmt(ptr noundef %61, i32 noundef %62, ptr noundef %63, ptr noundef @.str.239)
  store ptr %64, ptr %57, align 8, !tbaa !79
  %65 = load ptr, ptr %57, align 8, !tbaa !79
  %66 = icmp eq ptr %65, null
  br i1 %66, label %67, label %68

67:                                               ; preds = %28
  br label %142

68:                                               ; preds = %28
  %69 = load ptr, ptr %57, align 8, !tbaa !79
  %70 = call ptr @X509_REQ_get0_pubkey(ptr noundef %69)
  store ptr %70, ptr %58, align 8, !tbaa !17
  %71 = icmp eq ptr %70, null
  br i1 %71, label %72, label %75

72:                                               ; preds = %68
  %73 = load ptr, ptr @bio_err, align 8, !tbaa !19
  %74 = call i32 (ptr, ptr, ...) @BIO_printf(ptr noundef %73, ptr noundef @.str.240)
  br label %142

75:                                               ; preds = %68
  %76 = load i32, ptr %50, align 4, !tbaa !4
  %77 = icmp ne i32 %76, 0
  br i1 %77, label %78, label %83

78:                                               ; preds = %75
  %79 = load ptr, ptr @bio_err, align 8, !tbaa !19
  %80 = load ptr, ptr %57, align 8, !tbaa !79
  %81 = load i64, ptr %52, align 8, !tbaa !33
  %82 = call i32 @X509_REQ_print_ex(ptr noundef %79, ptr noundef %80, i64 noundef %81, i64 noundef 0)
  br label %83

83:                                               ; preds = %78, %75
  %84 = load ptr, ptr @bio_err, align 8, !tbaa !19
  %85 = call i32 (ptr, ptr, ...) @BIO_printf(ptr noundef %84, ptr noundef @.str.241)
  store i32 0, ptr %59, align 4, !tbaa !4
  %86 = load i32, ptr %55, align 4, !tbaa !4
  %87 = icmp ne i32 %86, 0
  br i1 %87, label %88, label %96

88:                                               ; preds = %83
  %89 = load ptr, ptr %57, align 8, !tbaa !79
  %90 = load ptr, ptr %32, align 8, !tbaa !17
  %91 = call i32 @X509_REQ_check_private_key(ptr noundef %89, ptr noundef %90)
  %92 = icmp ne i32 %91, 0
  br i1 %92, label %96, label %93

93:                                               ; preds = %88
  %94 = load ptr, ptr @bio_err, align 8, !tbaa !19
  %95 = call i32 (ptr, ptr, ...) @BIO_printf(ptr noundef %94, ptr noundef @.str.242)
  br label %142

96:                                               ; preds = %88, %83
  %97 = load ptr, ptr %57, align 8, !tbaa !79
  %98 = load ptr, ptr %58, align 8, !tbaa !17
  %99 = load ptr, ptr %36, align 8, !tbaa !25
  %100 = call i32 @do_X509_REQ_verify(ptr noundef %97, ptr noundef %98, ptr noundef %99)
  store i32 %100, ptr %60, align 4, !tbaa !4
  %101 = load i32, ptr %60, align 4, !tbaa !4
  %102 = icmp slt i32 %101, 0
  br i1 %102, label %103, label %106

103:                                              ; preds = %96
  %104 = load ptr, ptr @bio_err, align 8, !tbaa !19
  %105 = call i32 (ptr, ptr, ...) @BIO_printf(ptr noundef %104, ptr noundef @.str.243)
  br label %142

106:                                              ; preds = %96
  %107 = load i32, ptr %60, align 4, !tbaa !4
  %108 = icmp eq i32 %107, 0
  br i1 %108, label %109, label %112

109:                                              ; preds = %106
  %110 = load ptr, ptr @bio_err, align 8, !tbaa !19
  %111 = call i32 (ptr, ptr, ...) @BIO_printf(ptr noundef %110, ptr noundef @.str.244)
  br label %142

112:                                              ; preds = %106
  %113 = load ptr, ptr @bio_err, align 8, !tbaa !19
  %114 = call i32 (ptr, ptr, ...) @BIO_printf(ptr noundef %113, ptr noundef @.str.245)
  %115 = load ptr, ptr %29, align 8, !tbaa !75
  %116 = load ptr, ptr %32, align 8, !tbaa !17
  %117 = load ptr, ptr %33, align 8, !tbaa !35
  %118 = load ptr, ptr %34, align 8, !tbaa !31
  %119 = load ptr, ptr %35, align 8, !tbaa !25
  %120 = load ptr, ptr %37, align 8, !tbaa !23
  %121 = load ptr, ptr %38, align 8, !tbaa !21
  %122 = load ptr, ptr %39, align 8, !tbaa !15
  %123 = load ptr, ptr %40, align 8, !tbaa !31
  %124 = load i64, ptr %41, align 8, !tbaa !33
  %125 = load i32, ptr %42, align 4, !tbaa !4
  %126 = load i32, ptr %43, align 4, !tbaa !4
  %127 = load ptr, ptr %44, align 8, !tbaa !31
  %128 = load ptr, ptr %45, align 8, !tbaa !31
  %129 = load i64, ptr %46, align 8, !tbaa !33
  %130 = load i32, ptr %47, align 4, !tbaa !4
  %131 = load i32, ptr %50, align 4, !tbaa !4
  %132 = load ptr, ptr %57, align 8, !tbaa !79
  %133 = load ptr, ptr %48, align 8, !tbaa !31
  %134 = load ptr, ptr %49, align 8, !tbaa !11
  %135 = load i64, ptr %51, align 8, !tbaa !33
  %136 = load i64, ptr %52, align 8, !tbaa !33
  %137 = load i32, ptr %53, align 4, !tbaa !4
  %138 = load i32, ptr %54, align 4, !tbaa !4
  %139 = load i32, ptr %55, align 4, !tbaa !4
  %140 = load i64, ptr %56, align 8, !tbaa !33
  %141 = call i32 @do_body(ptr noundef %115, ptr noundef %116, ptr noundef %117, ptr noundef %118, ptr noundef %119, ptr noundef %120, ptr noundef %121, ptr noundef %122, ptr noundef %123, i64 noundef %124, i32 noundef %125, i32 noundef %126, ptr noundef %127, ptr noundef %128, i64 noundef %129, i32 noundef %130, i32 noundef %131, ptr noundef %132, ptr noundef %133, ptr noundef %134, i64 noundef %135, i64 noundef %136, i32 noundef %137, i32 noundef %138, i32 noundef %139, i64 noundef %140)
  store i32 %141, ptr %59, align 4, !tbaa !4
  br label %142

142:                                              ; preds = %112, %109, %103, %93, %72, %67
  %143 = load ptr, ptr @bio_err, align 8, !tbaa !19
  call void @ERR_print_errors(ptr noundef %143)
  %144 = load ptr, ptr %57, align 8, !tbaa !79
  call void @X509_REQ_free(ptr noundef %144)
  %145 = load i32, ptr %59, align 4, !tbaa !4
  call void @llvm.lifetime.end.p0(i64 4, ptr %60) #10
  call void @llvm.lifetime.end.p0(i64 4, ptr %59) #10
  call void @llvm.lifetime.end.p0(i64 8, ptr %58) #10
  call void @llvm.lifetime.end.p0(i64 8, ptr %57) #10
  ret i32 %145
}