; Function Attrs: nounwind uwtable
define internal fastcc noundef i32 @certify(ptr noundef nonnull writeonly captures(none) %0, ptr noundef %1, i32 noundef %2, ptr noundef nonnull %3, ptr noundef %4, ptr noundef %5, ptr noundef %6, ptr noundef %7, ptr noundef nonnull %8, ptr noundef nonnull readonly captures(none) %9, ptr noundef %10, ptr noundef %11, i64 noundef range(i64 4096, 4098) %12, i32 noundef range(i32 0, 2) %13, ptr noundef %14, ptr noundef %15, i64 noundef %16, i32 noundef range(i32 0, 2) %17, ptr noundef %18, ptr noundef nonnull %19, i32 noundef range(i32 0, 2) %20, i64 noundef %21, i64 noundef %22, i32 noundef range(i32 0, 2) %23, i32 noundef %24, i32 noundef range(i32 0, 2) %25, i64 noundef %26) unnamed_addr #0 {
  %28 = tail call ptr @load_csr_autofmt(ptr noundef %1, i32 noundef %2, ptr noundef %7, ptr noundef nonnull @.str.239) #12
  %29 = icmp eq ptr %28, null
  br i1 %29, label %62, label %30

30:                                               ; preds = %27
  %31 = tail call ptr @X509_REQ_get0_pubkey(ptr noundef nonnull %28) #12
  %32 = icmp eq ptr %31, null
  br i1 %32, label %33, label %36

33:                                               ; preds = %30
  %34 = load ptr, ptr @bio_err, align 8, !tbaa !19
  %35 = tail call i32 (ptr, ptr, ...) @BIO_printf(ptr noundef %34, ptr noundef nonnull @.str.240) #12
  br label %62

36:                                               ; preds = %30
  %.not = icmp eq i32 %20, 0
  br i1 %.not, label %40, label %37

37:                                               ; preds = %36
  %38 = load ptr, ptr @bio_err, align 8, !tbaa !19
  %39 = tail call i32 @X509_REQ_print_ex(ptr noundef %38, ptr noundef nonnull %28, i64 noundef %22, i64 noundef 0) #12
  br label %40

40:                                               ; preds = %37, %36
  %41 = load ptr, ptr @bio_err, align 8, !tbaa !19
  %42 = tail call i32 (ptr, ptr, ...) @BIO_printf(ptr noundef %41, ptr noundef nonnull @.str.241) #12
  %.not46 = icmp eq i32 %25, 0
  br i1 %.not46, label %48, label %43

43:                                               ; preds = %40
  %44 = tail call i32 @X509_REQ_check_private_key(ptr noundef nonnull %28, ptr noundef nonnull %3) #12
  %.not47 = icmp eq i32 %44, 0
  br i1 %.not47, label %45, label %48

45:                                               ; preds = %43
  %46 = load ptr, ptr @bio_err, align 8, !tbaa !19
  %47 = tail call i32 (ptr, ptr, ...) @BIO_printf(ptr noundef %46, ptr noundef nonnull @.str.242) #12
  br label %62

48:                                               ; preds = %43, %40
  %49 = tail call i32 @do_X509_REQ_verify(ptr noundef nonnull %28, ptr noundef nonnull %31, ptr noundef %7) #12
  %50 = icmp slt i32 %49, 0
  br i1 %50, label %51, label %54

51:                                               ; preds = %48
  %52 = load ptr, ptr @bio_err, align 8, !tbaa !19
  %53 = tail call i32 (ptr, ptr, ...) @BIO_printf(ptr noundef %52, ptr noundef nonnull @.str.243) #12
  br label %62

54:                                               ; preds = %48
  %55 = icmp eq i32 %49, 0
  %56 = load ptr, ptr @bio_err, align 8, !tbaa !19
  br i1 %55, label %57, label %59

57:                                               ; preds = %54
  %58 = tail call i32 (ptr, ptr, ...) @BIO_printf(ptr noundef %56, ptr noundef nonnull @.str.244) #12
  br label %62

59:                                               ; preds = %54
  %60 = tail call i32 (ptr, ptr, ...) @BIO_printf(ptr noundef %56, ptr noundef nonnull @.str.245) #12
  %61 = tail call fastcc i32 @do_body(ptr noundef %0, ptr noundef %3, ptr noundef %4, ptr noundef %5, ptr noundef %6, ptr noundef %8, ptr noundef %9, ptr noundef %10, ptr noundef %11, i64 noundef %12, i32 noundef %13, ptr noundef %14, ptr noundef %15, i64 noundef %16, i32 noundef %17, i32 noundef %20, ptr noundef %28, ptr noundef %18, ptr noundef %19, i64 noundef %21, i64 noundef %22, i32 noundef %23, i32 noundef %24, i32 noundef %25, i64 noundef %26)
  br label %62

62:                                               ; preds = %27, %59, %57, %51, %45, %33
  %.0 = phi i32 [ -1, %27 ], [ -1, %33 ], [ 0, %51 ], [ 0, %57 ], [ %61, %59 ], [ 0, %45 ]
  %63 = load ptr, ptr @bio_err, align 8, !tbaa !19
  tail call void @ERR_print_errors(ptr noundef %63) #12
  tail call void @X509_REQ_free(ptr noundef %28) #12
  ret i32 %.0
}